; Function Attrs: mustprogress uwtable
define noundef nonnull align 8 dereferenceable(56) ptr @_ZN32pxrInternal_v0_24__pxrReserved__19HdImageShaderSchema17GetDefaultLocatorEv() local_unnamed_addr #1 align 2 personality ptr @__gxx_personality_v0 {
  %1 = load atomic i8, ptr @_ZGVZN32pxrInternal_v0_24__pxrReserved__19HdImageShaderSchema17GetDefaultLocatorEvE7locator acquire, align 8
  %2 = icmp eq i8 %1, 0
  br i1 %2, label %3, label %10, !prof !40

3:                                                ; preds = %0
  %4 = tail call i32 @__cxa_guard_acquire(ptr nonnull @_ZGVZN32pxrInternal_v0_24__pxrReserved__19HdImageShaderSchema17GetDefaultLocatorEvE7locator) #12
  %.not = icmp eq i32 %4, 0
  br i1 %.not, label %10, label %5

5:                                                ; preds = %3
  %6 = invoke noundef nonnull align 8 dereferenceable(8) ptr @_ZN32pxrInternal_v0_24__pxrReserved__19HdImageShaderSchema14GetSchemaTokenEv()
          to label %7 unwind label %11

7:                                                ; preds = %5
  invoke void @_ZN32pxrInternal_v0_24__pxrReserved__19HdDataSourceLocatorC1ERKNS_7TfTokenE(ptr noundef nonnull align 8 dereferenceable(56) @_ZZN32pxrInternal_v0_24__pxrReserved__19HdImageShaderSchema17GetDefaultLocatorEvE7locator, ptr noundef nonnull align 8 dereferenceable(8) %6)
          to label %8 unwind label %11

8:                                                ; preds = %7
  %9 = tail call i32 @__cxa_atexit(ptr nonnull @_ZN32pxrInternal_v0_24__pxrReserved__19HdDataSourceLocatorD2Ev, ptr nonnull @_ZZN32pxrInternal_v0_24__pxrReserved__19HdImageShaderSchema17GetDefaultLocatorEvE7locator, ptr nonnull @__dso_handle) #12
  tail call void @__cxa_guard_release(ptr nonnull @_ZGVZN32pxrInternal_v0_24__pxrReserved__19HdImageShaderSchema17GetDefaultLocatorEvE7locator) #12
  br label %10

10:                                               ; preds = %8, %3, %0
  ret ptr @_ZZN32pxrInternal_v0_24__pxrReserved__19HdImageShaderSchema17GetDefaultLocatorEvE7locator

11:                                               ; preds = %7, %5
  %12 = landingpad { ptr, i32 }
          cleanup
  tail call void @__cxa_guard_abort(ptr nonnull @_ZGVZN32pxrInternal_v0_24__pxrReserved__19HdImageShaderSchema17GetDefaultLocatorEvE7locator) #12
  resume { ptr, i32 } %12
}